(lp0
VNY:New_York:Manhattan:Midtown_West
p1
aVNY:New_York:Manhattan:Chelsea
p2
aVNY:New_York:Manhattan:Midtown_East
p3
aVNY:New_York:Manhattan:Theater_District
p4
aVNY:New_York:Manhattan:Alphabet_City
p5
aVNY:New_York:Manhattan:Battery_Park
p6
aVNY:New_York:Manhattan:Central_Park
p7
aVNY:New_York:Manhattan:Chelsea
p8
aVNY:New_York:Manhattan:Chinatown
p9
aVNY:New_York:Manhattan:Civic_Center
p10
aVNY:New_York:Manhattan:East_Harlem
p11
aVNY:New_York:Manhattan:East_Village
p12
aVNY:New_York:Manhattan:Financial_District
p13
aVNY:New_York:Manhattan:Flatiron
p14
aVNY:New_York:Manhattan:Gramercy
p15
aVNY:New_York:Manhattan:Greenwich_Village
p16
aVNY:New_York:Manhattan:Harlem
p17
aVNY:New_York:Manhattan:Hell's_Kitchen
p18
aVNY:New_York:Manhattan:Inwood
p19
aVNY:New_York:Manhattan:Kips_Bay
p20
aVNY:New_York:Manhattan:Koreatown
p21
aVNY:New_York:Manhattan:Little_Italy
p22
aVNY:New_York:Manhattan:Lower_East_Side
p23
aVNY:New_York:Manhattan:Manhattan_Valley
p24
aVNY:New_York:Manhattan:Marble_Hill
p25
aVNY:New_York:Manhattan:Meatpacking_District
p26
aVNY:New_York:Manhattan:Midtown_East
p27
aVNY:New_York:Manhattan:Midtown_West
p28
aVNY:New_York:Manhattan:Morningside_Heights
p29
aVNY:New_York:Manhattan:Murray_Hill
p30
aVNY:New_York:Manhattan:NoHo
p31
aVNY:New_York:Manhattan:Nolita
p32
aVNY:New_York:Manhattan:Roosevelt_Island
p33
aVNY:New_York:Manhattan:SoHo
p34
aVNY:New_York:Manhattan:South_Street_Seaport
p35
aVNY:New_York:Manhattan:South_Village
p36
aVNY:New_York:Manhattan:Stuyvesant_Town
p37
aVNY:New_York:Manhattan:Theater_District
p38
aVNY:New_York:Manhattan:TriBeCa
p39
aVNY:New_York:Manhattan:Two_Bridges
p40
aVNY:New_York:Manhattan:Union_Square
p41
aVNY:New_York:Manhattan:Upper_East_Side
p42
aVNY:New_York:Manhattan:Upper_West_Side
p43
aVNY:New_York:Manhattan:Washington_Heights
p44
aVNY:New_York:Manhattan:West_Village
p45
aVNY:New_York:Manhattan:Yorkville
p46
aVNY:New_York:Brooklyn:Bath_Beach
p47
aVNY:New_York:Brooklyn:Bay_Ridge
p48
aVNY:New_York:Brooklyn:Bedford_Stuyvesant
p49
aVNY:New_York:Brooklyn:Bensonhurst
p50
aVNY:New_York:Brooklyn:Bergen_Beach
p51
aVNY:New_York:Brooklyn:Boerum_Hill
p52
aVNY:New_York:Brooklyn:Borough_Park
p53
aVNY:New_York:Brooklyn:Brighton_Beach
p54
aVNY:New_York:Brooklyn:Brooklyn_Heights
p55
aVNY:New_York:Brooklyn:Brownsville
p56
aVNY:New_York:Brooklyn:Bushwick
p57
aVNY:New_York:Brooklyn:Canarsie
p58
aVNY:New_York:Brooklyn:Carroll_Gardens
p59
aVNY:New_York:Brooklyn:City_Line
p60
aVNY:New_York:Brooklyn:Clinton_Hill
p61
aVNY:New_York:Brooklyn:Cobble_Hill
p62
aVNY:New_York:Brooklyn:Columbia_Street_Waterfront_District
p63
aVNY:New_York:Brooklyn:Coney_Island
p64
aVNY:New_York:Brooklyn:Crown_Heights
p65
aVNY:New_York:Brooklyn:Cypress_Hills
p66
aVNY:New_York:Brooklyn:DUMBO
p67
aVNY:New_York:Brooklyn:Ditmas_Park
p68
aVNY:New_York:Brooklyn:Downtown_Brooklyn
p69
aVNY:New_York:Brooklyn:Dyker_Heights
p70
aVNY:New_York:Brooklyn:East_Flatbush
p71
aVNY:New_York:Brooklyn:East_New_York
p72
aVNY:New_York:Brooklyn:East_Williamsburg
p73
aVNY:New_York:Brooklyn:Flatbush
p74
aVNY:New_York:Brooklyn:Flatlands
p75
aVNY:New_York:Brooklyn:Fort_Greene
p76
aVNY:New_York:Brooklyn:Fort_Hamilton
p77
aVNY:New_York:Brooklyn:Georgetown
p78
aVNY:New_York:Brooklyn:Gerritson_Beach
p79
aVNY:New_York:Brooklyn:Gowanus
p80
aVNY:New_York:Brooklyn:Gravesend
p81
aVNY:New_York:Brooklyn:Greenpoint
p82
aVNY:New_York:Brooklyn:Highland_Park
p83
aVNY:New_York:Brooklyn:Kensington
p84
aVNY:New_York:Brooklyn:Manhattan_Beach
p85
aVNY:New_York:Brooklyn:Marine_Park
p86
aVNY:New_York:Brooklyn:Midwood
p87
aVNY:New_York:Brooklyn:Mill_Basin
p88
aVNY:New_York:Brooklyn:Mill_Island
p89
aVNY:New_York:Brooklyn:New_Lots
p90
aVNY:New_York:Brooklyn:Ocean_Hill
p91
aVNY:New_York:Brooklyn:Ocean_Parkway
p92
aVNY:New_York:Brooklyn:Paedergat_Basin
p93
aVNY:New_York:Brooklyn:Park_Slope
p94
aVNY:New_York:Brooklyn:Prospect_Heights
p95
aVNY:New_York:Brooklyn:Prospect_Lefferts_Gardens
p96
aVNY:New_York:Brooklyn:Prospect_Park
p97
aVNY:New_York:Brooklyn:Red_Hook
p98
aVNY:New_York:Brooklyn:Remsen_Village
p99
aVNY:New_York:Brooklyn:Sea_Gate
p100
aVNY:New_York:Brooklyn:Sheepshead_Bay
p101
aVNY:New_York:Brooklyn:South_Slope
p102
aVNY:New_York:Brooklyn:South_Williamsburg
p103
aVNY:New_York:Brooklyn:Spring_Creek
p104
aVNY:New_York:Brooklyn:Starret_City
p105
aVNY:New_York:Brooklyn:Sunset_Park
p106
aVNY:New_York:Brooklyn:Vinegar_Hill
p107
aVNY:New_York:Brooklyn:Weeksville
p108
aVNY:New_York:Brooklyn:Williamsburg_-_North_Side
p109
aVNY:New_York:Brooklyn:Williamsburg_-_South_Side
p110
aVNY:New_York:Brooklyn:Windsor_Terrace
p111
aVNY:New_York:Brooklyn:Wingate
p112
aVNY:New_York:Queens:Arverne
p113
aVNY:New_York:Queens:Astoria
p114
aVNY:New_York:Queens:Astoria_Heights
p115
aVNY:New_York:Queens:Auburndale
p116
aVNY:New_York:Queens:Bay_Terrace
p117
aVNY:New_York:Queens:Bayside
p118
aVNY:New_York:Queens:Beechurst
p119
aVNY:New_York:Queens:Bellaire
p120
aVNY:New_York:Queens:Belle_Harbor
p121
aVNY:New_York:Queens:Bellerose
p122
aVNY:New_York:Queens:Breezy_Point
p123
aVNY:New_York:Queens:Briarwood
p124
aVNY:New_York:Queens:Cambria_Heights
p125
aVNY:New_York:Queens:College_Point
p126
aVNY:New_York:Queens:Corona
p127
aVNY:New_York:Queens:Douglaston
p128
aVNY:New_York:Queens:Downtown_Flushing
p129
aVNY:New_York:Queens:East_Elmhurst
p130
aVNY:New_York:Queens:Edgemere
p131
aVNY:New_York:Queens:Elmhurst
p132
aVNY:New_York:Queens:Far_Rockaway
p133
aVNY:New_York:Queens:Floral_Park
p134
aVNY:New_York:Queens:Flushing
p135
aVNY:New_York:Queens:Flushing_Meadows
p136
aVNY:New_York:Queens:Forest_Hills
p137
aVNY:New_York:Queens:Fresh_Meadows
p138
aVNY:New_York:Queens:Glen_Oaks
p139
aVNY:New_York:Queens:Glendale
p140
aVNY:New_York:Queens:Hillcrest
p141
aVNY:New_York:Queens:Hollis
p142
aVNY:New_York:Queens:Holliswood
p143
aVNY:New_York:Queens:Howard_Beach
p144
aVNY:New_York:Queens:Hunters_Point
p145
aVNY:New_York:Queens:JFK_Airport
p146
aVNY:New_York:Queens:Jackson_Heights
p147
aVNY:New_York:Queens:Jamaica
p148
aVNY:New_York:Queens:Jamaica_Estates
p149
aVNY:New_York:Queens:Jamaica_Hills
p150
aVNY:New_York:Queens:Kew_Gardens
p151
aVNY:New_York:Queens:Kew_Gardens_Hills
p152
aVNY:New_York:Queens:LaGuardia_Airport
p153
aVNY:New_York:Queens:Laurelton
p154
aVNY:New_York:Queens:Lindenwood
p155
aVNY:New_York:Queens:Little_Neck
p156
aVNY:New_York:Queens:Long_Island_City
p157
aVNY:New_York:Queens:Malba
p158
aVNY:New_York:Queens:Maspeth
p159
aVNY:New_York:Queens:Middle_Village
p160
aVNY:New_York:Queens:Murray_Hill
p161
aVNY:New_York:Queens:North_Corona
p162
aVNY:New_York:Queens:Oakland_Gardens
p163
aVNY:New_York:Queens:Ozone_Park
p164
aVNY:New_York:Queens:Pomonok
p165
aVNY:New_York:Queens:Queens_Village
p166
aVNY:New_York:Queens:Queensborough_Hill
p167
aVNY:New_York:Queens:Rego_Park
p168
aVNY:New_York:Queens:Richmond_Hill
p169
aVNY:New_York:Queens:Ridgewood
p170
aVNY:New_York:Queens:Rochdale
p171
aVNY:New_York:Queens:Rockaway_Park
p172
aVNY:New_York:Queens:Rosedale
p173
aVNY:New_York:Queens:Seaside
p174
aVNY:New_York:Queens:Somerville
p175
aVNY:New_York:Queens:Springfield_Gardens
p176
aVNY:New_York:Queens:Steinway
p177
aVNY:New_York:Queens:Sunnyside
p178
aVNY:New_York:Queens:Utopia
p179
aVNY:New_York:Queens:Whitestone
p180
aVNY:New_York:Queens:Woodhaven
p181
aVNY:New_York:Queens:Woodside
p182
aVNY:New_York:Bronx:Baychester
p183
aVNY:New_York:Bronx:Bedford_Park
p184
aVNY:New_York:Bronx:Belmont
p185
aVNY:New_York:Bronx:Castle_Hill
p186
aVNY:New_York:Bronx:City_Island
p187
aVNY:New_York:Bronx:Claremont_Village
p188
aVNY:New_York:Bronx:Clason_Point
p189
aVNY:New_York:Bronx:Co-op_City
p190
aVNY:New_York:Bronx:Concourse
p191
aVNY:New_York:Bronx:Concourse_Village
p192
aVNY:New_York:Bronx:Country_Club
p193
aVNY:New_York:Bronx:East_Tremont
p194
aVNY:New_York:Bronx:Eastchester
p195
aVNY:New_York:Bronx:Edenwald
p196
aVNY:New_York:Bronx:Edgewater_Park
p197
aVNY:New_York:Bronx:Fieldston
p198
aVNY:New_York:Bronx:Fordham
p199
aVNY:New_York:Bronx:High_Bridge
p200
aVNY:New_York:Bronx:Hunts_Point
p201
aVNY:New_York:Bronx:Kingsbridge
p202
aVNY:New_York:Bronx:Longwood
p203
aVNY:New_York:Bronx:Melrose
p204
aVNY:New_York:Bronx:Morris_Heights
p205
aVNY:New_York:Bronx:Morris_Park
p206
aVNY:New_York:Bronx:Morrisania
p207
aVNY:New_York:Bronx:Mott_Haven
p208
aVNY:New_York:Bronx:Mount_Eden
p209
aVNY:New_York:Bronx:Mount_Hope
p210
aVNY:New_York:Bronx:North_Riverdale
p211
aVNY:New_York:Bronx:Norwood
p212
aVNY:New_York:Bronx:Olinville
p213
aVNY:New_York:Bronx:Parkchester
p214
aVNY:New_York:Bronx:Pelham_Bay
p215
aVNY:New_York:Bronx:Pelham_Gardens
p216
aVNY:New_York:Bronx:Port_Morris
p217
aVNY:New_York:Bronx:Riverdale
p218
aVNY:New_York:Bronx:Schuylerville
p219
aVNY:New_York:Bronx:Soundview
p220
aVNY:New_York:Bronx:Spuyten_Duyvil
p221
aVNY:New_York:Bronx:Throgs_Neck
p222
aVNY:New_York:Bronx:Unionport
p223
aVNY:New_York:Bronx:University_Heights
p224
aVNY:New_York:Bronx:Van_Nest
p225
aVNY:New_York:Bronx:Wakefield
p226
aVNY:New_York:Bronx:West_Farms
p227
aVNY:New_York:Bronx:Westchester_Square
p228
aVNY:New_York:Bronx:Williamsbridge
p229
aVNY:New_York:Bronx:Woodlawn
p230
aVNY:New_York:Staten_Island:Annadale
p231
aVNY:New_York:Staten_Island:Arden_Heights
p232
aVNY:New_York:Staten_Island:Arlington
p233
aVNY:New_York:Staten_Island:Arrochar
p234
aVNY:New_York:Staten_Island:Bay_Terrace
p235
aVNY:New_York:Staten_Island:Bloomfield
p236
aVNY:New_York:Staten_Island:Bullshead
p237
aVNY:New_York:Staten_Island:Castleton_Corners
p238
aVNY:New_York:Staten_Island:Charleston
p239
aVNY:New_York:Staten_Island:Chelsea
p240
aVNY:New_York:Staten_Island:Clifton
p241
aVNY:New_York:Staten_Island:Concord
p242
aVNY:New_York:Staten_Island:Dongan_Hills
p243
aVNY:New_York:Staten_Island:Elm_Park
p244
aVNY:New_York:Staten_Island:Eltingville
p245
aVNY:New_York:Staten_Island:Emerson_Hill
p246
aVNY:New_York:Staten_Island:Graniteville
p247
aVNY:New_York:Staten_Island:Grant_City
p248
aVNY:New_York:Staten_Island:Grasmere
p249
aVNY:New_York:Staten_Island:Great_Kills
p250
aVNY:New_York:Staten_Island:Grymes_Hill
p251
aVNY:New_York:Staten_Island:Heartland_Village
p252
aVNY:New_York:Staten_Island:Howland_Hook
p253
aVNY:New_York:Staten_Island:Huguenot
p254
aVNY:New_York:Staten_Island:Lighthouse_Hill
p255
aVNY:New_York:Staten_Island:Mariner
p256
aVNY:New_York:Staten_Island:Midland_Beach
p257
aVNY:New_York:Staten_Island:New_Brighton
p258
aVNY:New_York:Staten_Island:New_Dorp
p259
aVNY:New_York:Staten_Island:New_Dorp_Beach
p260
aVNY:New_York:Staten_Island:New_Springville
p261
aVNY:New_York:Staten_Island:Oakwood
p262
aVNY:New_York:Staten_Island:Old_Town
p263
aVNY:New_York:Staten_Island:Park_Hill
p264
aVNY:New_York:Staten_Island:Pleasant_Plains
p265
aVNY:New_York:Staten_Island:Port_Richmond
p266
aVNY:New_York:Staten_Island:Princes_Bay
p267
aVNY:New_York:Staten_Island:Randall_Manor
p268
aVNY:New_York:Staten_Island:Richmond_Town
p269
aVNY:New_York:Staten_Island:Richmond_Valley
p270
aVNY:New_York:Staten_Island:Rosebank
p271
aVNY:New_York:Staten_Island:Rossville
p272
aVNY:New_York:Staten_Island:Shore_Acres
p273
aVNY:New_York:Staten_Island:Silver_Lake
p274
aVNY:New_York:Staten_Island:St._George
p275
aVNY:New_York:Staten_Island:Stapleton
p276
aVNY:New_York:Staten_Island:Sunnyside
p277
aVNY:New_York:Staten_Island:Todt_Hill
p278
aVNY:New_York:Staten_Island:Tompkinsville
p279
aVNY:New_York:Staten_Island:Tottenville
p280
aVNY:New_York:Staten_Island:West_Brighton
p281
aVNY:New_York:Staten_Island:Westerleigh
p282
aVNY:New_York:Staten_Island:Woodrow
p283
a.